target datalayout = "e-m:e-p270:32:32-p271:32:32-p272:64:64-i64:64-i128:128-f80:128-n8:16:32:64-S128"
target triple = "x86_64-pc-linux-gnu"

%class.ResourceHashtableNode.36 = type { i32, ptr, %"class.HeapShared::CachedOopInfo", ptr }
%"class.HeapShared::CachedOopInfo" = type <{ ptr, i64, i8, i8, [6 x i8] }>
%class.ResizeableResourceHashtableStorage = type { i32, ptr }

@.str.37 = private unnamed_addr constant [25 x i8] c"Not an archived object??\00", align 1
@_ZN10HeapShared22_archived_object_cacheE = external global ptr, align 8

; Function Attrs: mustprogress nounwind uwtable
define linkonce_odr hidden noundef ptr @_ZNK34ResizeableResourceHashtableStorageIP7oopDescN10HeapShared13CachedOopInfoELN6AnyObj15allocation_typeE2EL8MEMFLAGS13EE5tableEv(ptr noundef nonnull align 8 dereferenceable(16) %0) #1 comdat align 2 {
  %2 = alloca ptr, align 8
  store ptr %0, ptr %2, align 8
  %3 = load ptr, ptr %2, align 8
  %4 = getelementptr inbounds %class.ResizeableResourceHashtableStorage, ptr %3, i32 0, i32 1
  %5 = load ptr, ptr %4, align 8
  ret ptr %5
}

; Function Attrs: mustprogress nounwind uwtable
define linkonce_odr hidden noundef ptr @_ZNK21ResourceHashtableBaseI34ResizeableResourceHashtableStorageIP7oopDescN10HeapShared13CachedOopInfoELN6AnyObj15allocation_typeE2EL8MEMFLAGS13EES2_S4_LS6_2ELS7_13EXadL_ZNS3_8oop_hashERKS2_EEXadL_Z16primitive_equalsIS2_EbRKT_SE_EEE5tableEv(ptr noundef nonnull align 8 dereferenceable(20) %0) #1 comdat align 2 {
  %2 = alloca ptr, align 8
  store ptr %0, ptr %2, align 8
  %3 = load ptr, ptr %2, align 8
  %4 = call noundef ptr @_ZNK34ResizeableResourceHashtableStorageIP7oopDescN10HeapShared13CachedOopInfoELN6AnyObj15allocation_typeE2EL8MEMFLAGS13EE5tableEv(ptr noundef nonnull align 8 dereferenceable(16) %3)
  ret ptr %4
}

; Function Attrs: mustprogress nounwind uwtable
define linkonce_odr hidden noundef i32 @_ZNK34ResizeableResourceHashtableStorageIP7oopDescN10HeapShared13CachedOopInfoELN6AnyObj15allocation_typeE2EL8MEMFLAGS13EE10table_sizeEv(ptr noundef nonnull align 8 dereferenceable(16) %0) #1 comdat align 2 {
  %2 = alloca ptr, align 8
  store ptr %0, ptr %2, align 8
  %3 = load ptr, ptr %2, align 8
  %4 = getelementptr inbounds %class.ResizeableResourceHashtableStorage, ptr %3, i32 0, i32 0
  %5 = load i32, ptr %4, align 8
  ret i32 %5
}

; Function Attrs: mustprogress nounwind uwtable
define linkonce_odr hidden noundef zeroext i1 @_Z16primitive_equalsIP7oopDescEbRKT_S4_(ptr noundef nonnull align 8 dereferenceable(8) %0, ptr noundef nonnull align 8 dereferenceable(8) %1) #1 comdat {
  %3 = alloca ptr, align 8
  %4 = alloca ptr, align 8
  store ptr %0, ptr %3, align 8
  store ptr %1, ptr %4, align 8
  %5 = load ptr, ptr %3, align 8
  %6 = load ptr, ptr %5, align 8
  %7 = load ptr, ptr %4, align 8
  %8 = load ptr, ptr %7, align 8
  %9 = icmp eq ptr %6, %8
  ret i1 %9
}

; Function Attrs: mustprogress nounwind uwtable
define linkonce_odr hidden noundef ptr @_ZN21ResourceHashtableBaseI34ResizeableResourceHashtableStorageIP7oopDescN10HeapShared13CachedOopInfoELN6AnyObj15allocation_typeE2EL8MEMFLAGS13EES2_S4_LS6_2ELS7_13EXadL_ZNS3_8oop_hashERKS2_EEXadL_Z16primitive_equalsIS2_EbRKT_SE_EEE9bucket_atEj(ptr noundef nonnull align 8 dereferenceable(20) %0, i32 noundef %1) #1 comdat align 2 {
  %3 = alloca ptr, align 8
  %4 = alloca i32, align 4
  %5 = alloca ptr, align 8
  store ptr %0, ptr %3, align 8
  store i32 %1, ptr %4, align 4
  %6 = load ptr, ptr %3, align 8
  %7 = call noundef ptr @_ZNK21ResourceHashtableBaseI34ResizeableResourceHashtableStorageIP7oopDescN10HeapShared13CachedOopInfoELN6AnyObj15allocation_typeE2EL8MEMFLAGS13EES2_S4_LS6_2ELS7_13EXadL_ZNS3_8oop_hashERKS2_EEXadL_Z16primitive_equalsIS2_EbRKT_SE_EEE5tableEv(ptr noundef nonnull align 8 dereferenceable(20) %6)
  store ptr %7, ptr %5, align 8
  %8 = load ptr, ptr %5, align 8
  %9 = load i32, ptr %4, align 4
  %10 = zext i32 %9 to i64
  %11 = getelementptr inbounds ptr, ptr %8, i64 %10
  ret ptr %11
}

; Function Attrs: mustprogress nounwind uwtable
define linkonce_odr hidden noundef i32 @_ZNK21ResourceHashtableBaseI34ResizeableResourceHashtableStorageIP7oopDescN10HeapShared13CachedOopInfoELN6AnyObj15allocation_typeE2EL8MEMFLAGS13EES2_S4_LS6_2ELS7_13EXadL_ZNS3_8oop_hashERKS2_EEXadL_Z16primitive_equalsIS2_EbRKT_SE_EEE10table_sizeEv(ptr noundef nonnull align 8 dereferenceable(20) %0) #1 comdat align 2 {
  %2 = alloca ptr, align 8
  store ptr %0, ptr %2, align 8
  %3 = load ptr, ptr %2, align 8
  %4 = call noundef i32 @_ZNK34ResizeableResourceHashtableStorageIP7oopDescN10HeapShared13CachedOopInfoELN6AnyObj15allocation_typeE2EL8MEMFLAGS13EE10table_sizeEv(ptr noundef nonnull align 8 dereferenceable(16) %3)
  ret i32 %4
}

; Function Attrs: mustprogress nounwind uwtable
define linkonce_odr hidden noundef ptr @_ZN21ResourceHashtableBaseI34ResizeableResourceHashtableStorageIP7oopDescN10HeapShared13CachedOopInfoELN6AnyObj15allocation_typeE2EL8MEMFLAGS13EES2_S4_LS6_2ELS7_13EXadL_ZNS3_8oop_hashERKS2_EEXadL_Z16primitive_equalsIS2_EbRKT_SE_EEE11lookup_nodeEjSA_(ptr noundef nonnull align 8 dereferenceable(20) %0, i32 noundef %1, ptr noundef nonnull align 8 dereferenceable(8) %2) #1 comdat align 2 {
  %4 = alloca ptr, align 8
  %5 = alloca i32, align 4
  %6 = alloca ptr, align 8
  %7 = alloca i32, align 4
  %8 = alloca ptr, align 8
  %9 = alloca ptr, align 8
  store ptr %0, ptr %4, align 8
  store i32 %1, ptr %5, align 4
  store ptr %2, ptr %6, align 8
  %10 = load ptr, ptr %4, align 8
  %11 = load i32, ptr %5, align 4
  %12 = call noundef i32 @_ZNK21ResourceHashtableBaseI34ResizeableResourceHashtableStorageIP7oopDescN10HeapShared13CachedOopInfoELN6AnyObj15allocation_typeE2EL8MEMFLAGS13EES2_S4_LS6_2ELS7_13EXadL_ZNS3_8oop_hashERKS2_EEXadL_Z16primitive_equalsIS2_EbRKT_SE_EEE10table_sizeEv(ptr noundef nonnull align 8 dereferenceable(20) %10)
  %13 = urem i32 %11, %12
  store i32 %13, ptr %7, align 4
  %14 = load i32, ptr %7, align 4
  %15 = call noundef ptr @_ZN21ResourceHashtableBaseI34ResizeableResourceHashtableStorageIP7oopDescN10HeapShared13CachedOopInfoELN6AnyObj15allocation_typeE2EL8MEMFLAGS13EES2_S4_LS6_2ELS7_13EXadL_ZNS3_8oop_hashERKS2_EEXadL_Z16primitive_equalsIS2_EbRKT_SE_EEE9bucket_atEj(ptr noundef nonnull align 8 dereferenceable(20) %10, i32 noundef %14)
  store ptr %15, ptr %8, align 8
  br label %16

16:                                               ; preds = %34, %3
  %17 = load ptr, ptr %8, align 8
  %18 = load ptr, ptr %17, align 8
  %19 = icmp ne ptr %18, null
  br i1 %19, label %20, label %37

20:                                               ; preds = %16
  %21 = load ptr, ptr %8, align 8
  %22 = load ptr, ptr %21, align 8
  store ptr %22, ptr %9, align 8
  %23 = load ptr, ptr %9, align 8
  %24 = getelementptr inbounds %class.ResourceHashtableNode.36, ptr %23, i32 0, i32 0
  %25 = load i32, ptr %24, align 8
  %26 = load i32, ptr %5, align 4
  %27 = icmp eq i32 %25, %26
  br i1 %27, label %28, label %34

28:                                               ; preds = %20
  %29 = load ptr, ptr %6, align 8
  %30 = load ptr, ptr %9, align 8
  %31 = getelementptr inbounds %class.ResourceHashtableNode.36, ptr %30, i32 0, i32 1
  %32 = call noundef zeroext i1 @_Z16primitive_equalsIP7oopDescEbRKT_S4_(ptr noundef nonnull align 8 dereferenceable(8) %29, ptr noundef nonnull align 8 dereferenceable(8) %31)
  br i1 %32, label %33, label %34

33:                                               ; preds = %28
  br label %37

34:                                               ; preds = %28, %20
  %35 = load ptr, ptr %9, align 8
  %36 = getelementptr inbounds %class.ResourceHashtableNode.36, ptr %35, i32 0, i32 3
  store ptr %36, ptr %8, align 8
  br label %16, !llvm.loop !24

37:                                               ; preds = %33, %16
  %38 = load ptr, ptr %8, align 8
  ret ptr %38
}

; Function Attrs: mustprogress nounwind uwtable
define linkonce_odr hidden noundef ptr @_ZNK21ResourceHashtableBaseI34ResizeableResourceHashtableStorageIP7oopDescN10HeapShared13CachedOopInfoELN6AnyObj15allocation_typeE2EL8MEMFLAGS13EES2_S4_LS6_2ELS7_13EXadL_ZNS3_8oop_hashERKS2_EEXadL_Z16primitive_equalsIS2_EbRKT_SE_EEE11lookup_nodeEjSA_(ptr noundef nonnull align 8 dereferenceable(20) %0, i32 noundef %1, ptr noundef nonnull align 8 dereferenceable(8) %2) #1 comdat align 2 {
  %4 = alloca ptr, align 8
  %5 = alloca i32, align 4
  %6 = alloca ptr, align 8
  store ptr %0, ptr %4, align 8
  store i32 %1, ptr %5, align 4
  store ptr %2, ptr %6, align 8
  %7 = load ptr, ptr %4, align 8
  %8 = load i32, ptr %5, align 4
  %9 = load ptr, ptr %6, align 8
  %10 = call noundef ptr @_ZN21ResourceHashtableBaseI34ResizeableResourceHashtableStorageIP7oopDescN10HeapShared13CachedOopInfoELN6AnyObj15allocation_typeE2EL8MEMFLAGS13EES2_S4_LS6_2ELS7_13EXadL_ZNS3_8oop_hashERKS2_EEXadL_Z16primitive_equalsIS2_EbRKT_SE_EEE11lookup_nodeEjSA_(ptr noundef nonnull align 8 dereferenceable(20) %7, i32 noundef %8, ptr noundef nonnull align 8 dereferenceable(8) %9)
  ret ptr %10
}

; Function Attrs: mustprogress nounwind uwtable
define linkonce_odr hidden noundef ptr @_ZNK21ResourceHashtableBaseI34ResizeableResourceHashtableStorageIP7oopDescN10HeapShared13CachedOopInfoELN6AnyObj15allocation_typeE2EL8MEMFLAGS13EES2_S4_LS6_2ELS7_13EXadL_ZNS3_8oop_hashERKS2_EEXadL_Z16primitive_equalsIS2_EbRKT_SE_EEE3getESA_(ptr noundef nonnull align 8 dereferenceable(20) %0, ptr noundef nonnull align 8 dereferenceable(8) %1) #1 comdat align 2 {
  %3 = alloca ptr, align 8
  %4 = alloca ptr, align 8
  %5 = alloca ptr, align 8
  %6 = alloca i32, align 4
  %7 = alloca ptr, align 8
  store ptr %0, ptr %4, align 8
  store ptr %1, ptr %5, align 8
  %8 = load ptr, ptr %4, align 8
  %9 = load ptr, ptr %5, align 8
  %10 = call noundef i32 @_ZN10HeapShared8oop_hashERKP7oopDesc(ptr noundef nonnull align 8 dereferenceable(8) %9)
  store i32 %10, ptr %6, align 4
  %11 = load i32, ptr %6, align 4
  %12 = load ptr, ptr %5, align 8
  %13 = call noundef ptr @_ZNK21ResourceHashtableBaseI34ResizeableResourceHashtableStorageIP7oopDescN10HeapShared13CachedOopInfoELN6AnyObj15allocation_typeE2EL8MEMFLAGS13EES2_S4_LS6_2ELS7_13EXadL_ZNS3_8oop_hashERKS2_EEXadL_Z16primitive_equalsIS2_EbRKT_SE_EEE11lookup_nodeEjSA_(ptr noundef nonnull align 8 dereferenceable(20) %8, i32 noundef %11, ptr noundef nonnull align 8 dereferenceable(8) %12)
  store ptr %13, ptr %7, align 8
  %14 = load ptr, ptr %7, align 8
  %15 = load ptr, ptr %14, align 8
  %16 = icmp ne ptr %15, null
  br i1 %16, label %17, label %21

17:                                               ; preds = %2
  %18 = load ptr, ptr %7, align 8
  %19 = load ptr, ptr %18, align 8
  %20 = getelementptr inbounds %class.ResourceHashtableNode.36, ptr %19, i32 0, i32 2
  store ptr %20, ptr %3, align 8
  br label %22

21:                                               ; preds = %2
  store ptr null, ptr %3, align 8
  br label %22

22:                                               ; preds = %21, %17
  %23 = load ptr, ptr %3, align 8
  ret ptr %23
}

; Function Attrs: mustprogress nounwind uwtable
define linkonce_odr hidden noundef ptr @_ZN10HeapShared21archived_object_cacheEv() #1 comdat align 2 {
  %1 = load ptr, ptr @_ZN10HeapShared22_archived_object_cacheE, align 8
  ret ptr %1
}

; Function Attrs: mustprogress nounwind uwtable
define hidden void @_ZN15CDSHeapVerifier13trace_to_rootEP12outputStreamP7oopDesc(ptr noundef %0, ptr noundef %1) #1 align 2 {
  %3 = alloca ptr, align 8
  %4 = alloca ptr, align 8
  %5 = alloca ptr, align 8
  store ptr %0, ptr %3, align 8
  store ptr %1, ptr %4, align 8
  %6 = call noundef ptr @_ZN10HeapShared21archived_object_cacheEv()
  %7 = call noundef ptr @_ZNK21ResourceHashtableBaseI34ResizeableResourceHashtableStorageIP7oopDescN10HeapShared13CachedOopInfoELN6AnyObj15allocation_typeE2EL8MEMFLAGS13EES2_S4_LS6_2ELS7_13EXadL_ZNS3_8oop_hashERKS2_EEXadL_Z16primitive_equalsIS2_EbRKT_SE_EEE3getESA_(ptr noundef nonnull align 8 dereferenceable(20) %6, ptr noundef nonnull align 8 dereferenceable(8) %4)
  store ptr %7, ptr %5, align 8
  %8 = load ptr, ptr %5, align 8
  %9 = icmp ne ptr %8, null
  br i1 %9, label %10, label %15

10:                                               ; preds = %2
  %11 = load ptr, ptr %3, align 8
  %12 = load ptr, ptr %4, align 8
  %13 = load ptr, ptr %5, align 8
  %14 = call noundef i32 @_ZN15CDSHeapVerifier13trace_to_rootEP12outputStreamP7oopDescS3_PN10HeapShared13CachedOopInfoE(ptr noundef %11, ptr noundef %12, ptr noundef null, ptr noundef %13)
  br label %17

15:                                               ; preds = %2
  %16 = load ptr, ptr %3, align 8
  call void (ptr, ptr, ...) @_ZN12outputStream8print_crEPKcz(ptr noundef nonnull align 8 dereferenceable(56) %16, ptr noundef @.str.37)
  br label %17

17:                                               ; preds = %15, %10
  ret void
}