; Function Attrs: mustprogress nounwind uwtable
define hidden void @_ZN15CDSHeapVerifier13trace_to_rootEP12outputStreamP7oopDesc(ptr noundef %0, ptr noundef %1) local_unnamed_addr #0 align 2 {
  %3 = alloca ptr, align 8
  store ptr %1, ptr %3, align 8
  %4 = load ptr, ptr @_ZN10HeapShared22_archived_object_cacheE, align 8
  %5 = call noundef i32 @_ZN10HeapShared8oop_hashERKP7oopDesc(ptr noundef nonnull align 8 dereferenceable(8) %3) #12
  %6 = load i32, ptr %4, align 8
  %7 = urem i32 %5, %6
  %8 = getelementptr inbounds i8, ptr %4, i64 8
  %9 = load ptr, ptr %8, align 8
  %10 = zext i32 %7 to i64
  %11 = getelementptr inbounds ptr, ptr %9, i64 %10
  %12 = load ptr, ptr %11, align 8
  %.not11.i.i.i = icmp eq ptr %12, null
  br i1 %.not11.i.i.i, label %.loopexit, label %.lr.ph.i.i.i

.lr.ph.i.i.i:                                     ; preds = %2
  %13 = load ptr, ptr %3, align 8
  br label %14

14:                                               ; preds = %22, %.lr.ph.i.i.i
  %15 = phi ptr [ %12, %.lr.ph.i.i.i ], [ %24, %22 ]
  %16 = load i32, ptr %15, align 8
  %17 = icmp eq i32 %16, %5
  br i1 %17, label %18, label %22

18:                                               ; preds = %14
  %19 = getelementptr inbounds i8, ptr %15, i64 8
  %20 = load ptr, ptr %19, align 8
  %21 = icmp eq ptr %13, %20
  br i1 %21, label %25, label %22

22:                                               ; preds = %18, %14
  %23 = getelementptr inbounds i8, ptr %15, i64 40
  %24 = load ptr, ptr %23, align 8
  %.not.i.i.i = icmp eq ptr %24, null
  br i1 %.not.i.i.i, label %.loopexit, label %14, !llvm.loop !11

25:                                               ; preds = %18
  %26 = getelementptr inbounds i8, ptr %15, i64 16
  %27 = call noundef i32 @_ZN15CDSHeapVerifier13trace_to_rootEP12outputStreamP7oopDescS3_PN10HeapShared13CachedOopInfoE(ptr noundef %0, ptr noundef %13, ptr noundef null, ptr noundef nonnull %26)
  br label %28

.loopexit:                                        ; preds = %22, %2
  call void (ptr, ptr, ...) @_ZN12outputStream8print_crEPKcz(ptr noundef nonnull align 8 dereferenceable(56) %0, ptr noundef nonnull @.str.37) #12
  br label %28

28:                                               ; preds = %.loopexit, %25
  ret void
}